; Function Attrs: mustprogress nounwind uwtable
define void @deleteConstraints(i32 noundef %0, ptr noundef %1) local_unnamed_addr #7 {
  %3 = icmp sgt i32 %0, 0
  br i1 %3, label %.lr.ph.preheader, label %._crit_edge

.lr.ph.preheader:                                 ; preds = %2
  %wide.trip.count = zext nneg i32 %0 to i64
  br label %.lr.ph

._crit_edge:                                      ; preds = %2
  %4 = icmp eq ptr %1, null
  br i1 %4, label %10, label %._crit_edge.thread

.lr.ph:                                           ; preds = %.lr.ph.preheader, %9
  %indvars.iv = phi i64 [ 0, %.lr.ph.preheader ], [ %indvars.iv.next, %9 ]
  %5 = getelementptr inbounds nuw ptr, ptr %1, i64 %indvars.iv
  %6 = load ptr, ptr %5, align 8, !tbaa !28
  %7 = icmp eq ptr %6, null
  br i1 %7, label %9, label %8

8:                                                ; preds = %.lr.ph
  tail call void @_ZN10ConstraintD1Ev(ptr noundef nonnull align 8 dereferenceable(42) %6) #23
  tail call void @_ZdlPvm(ptr noundef nonnull %6, i64 noundef 48) #22
  br label %9

9:                                                ; preds = %.lr.ph, %8
  %indvars.iv.next = add nuw nsw i64 %indvars.iv, 1
  %exitcond.not = icmp eq i64 %indvars.iv.next, %wide.trip.count
  br i1 %exitcond.not, label %._crit_edge.thread, label %.lr.ph, !llvm.loop !30

._crit_edge.thread:                               ; preds = %9, %._crit_edge
  tail call void @_ZdaPv(ptr noundef nonnull %1) #22
  br label %10

10:                                               ; preds = %._crit_edge.thread, %._crit_edge
  ret void
}